target datalayout = "e-m:e-p270:32:32-p271:32:32-p272:64:64-i64:64-i128:128-f80:128-n8:16:32:64-S128"
target triple = "x86_64-pc-linux-gnu"

%class.LIR_Opr = type { i64 }
%class.ValueStack = type <{ ptr, ptr, i32, i32, %class.GrowableArray, %class.GrowableArray, ptr, i8, [7 x i8] }>
%class.GrowableArray = type { %class.GrowableArrayWithAllocator, %class.GrowableArrayMetadata }
%class.GrowableArrayWithAllocator = type { %class.GrowableArrayView }
%class.GrowableArrayView = type { %class.GrowableArrayBase, ptr }
%class.GrowableArrayBase = type { i32, i32 }
%class.GrowableArrayMetadata = type { i64 }
%class.Instruction = type { ptr, i32, i32, i32, ptr, ptr, ptr, %class.LIR_Opr, i32, ptr, ptr, ptr, ptr }
%class.ValueType = type { ptr, i32, i32 }

; Function Attrs: mustprogress nounwind uwtable
define linkonce_odr hidden noundef nonnull align 8 dereferenceable(8) ptr @_ZN17GrowableArrayViewIP11InstructionE2atEi(ptr noundef nonnull align 8 dereferenceable(16) %0, i32 noundef %1) #1 comdat align 2 {
  %3 = alloca ptr, align 8
  %4 = alloca i32, align 4
  store ptr %0, ptr %3, align 8
  store i32 %1, ptr %4, align 4
  %5 = load ptr, ptr %3, align 8
  %6 = getelementptr inbounds %class.GrowableArrayView, ptr %5, i32 0, i32 1
  %7 = load ptr, ptr %6, align 8
  %8 = load i32, ptr %4, align 4
  %9 = sext i32 %8 to i64
  %10 = getelementptr inbounds ptr, ptr %7, i64 %9
  ret ptr %10
}

; Function Attrs: mustprogress nounwind uwtable
define linkonce_odr hidden noundef nonnull align 8 dereferenceable(8) ptr @_ZNK17GrowableArrayViewIP11InstructionE2atEi(ptr noundef nonnull align 8 dereferenceable(16) %0, i32 noundef %1) #1 comdat align 2 {
  %3 = alloca ptr, align 8
  %4 = alloca i32, align 4
  store ptr %0, ptr %3, align 8
  store i32 %1, ptr %4, align 4
  %5 = load ptr, ptr %3, align 8
  %6 = getelementptr inbounds %class.GrowableArrayView, ptr %5, i32 0, i32 1
  %7 = load ptr, ptr %6, align 8
  %8 = load i32, ptr %4, align 4
  %9 = sext i32 %8 to i64
  %10 = getelementptr inbounds ptr, ptr %7, i64 %9
  ret ptr %10
}

; Function Attrs: mustprogress nounwind uwtable
define linkonce_odr hidden noundef i32 @_ZNK17GrowableArrayBase6lengthEv(ptr noundef nonnull align 4 dereferenceable(8) %0) #1 comdat align 2 {
  %2 = alloca ptr, align 8
  store ptr %0, ptr %2, align 8
  %3 = load ptr, ptr %2, align 8
  %4 = getelementptr inbounds %class.GrowableArrayBase, ptr %3, i32 0, i32 0
  %5 = load i32, ptr %4, align 4
  ret i32 %5
}

; Function Attrs: mustprogress nounwind uwtable
define linkonce_odr hidden noundef ptr @_ZNK10ValueStack7lock_atEi(ptr noundef nonnull align 8 dereferenceable(81) %0, i32 noundef %1) #1 comdat align 2 {
  %3 = alloca ptr, align 8
  %4 = alloca i32, align 4
  store ptr %0, ptr %3, align 8
  store i32 %1, ptr %4, align 4
  %5 = load ptr, ptr %3, align 8
  %6 = getelementptr inbounds %class.ValueStack, ptr %5, i32 0, i32 6
  %7 = load ptr, ptr %6, align 8
  %8 = load i32, ptr %4, align 4
  %9 = call noundef nonnull align 8 dereferenceable(8) ptr @_ZN17GrowableArrayViewIP11InstructionE2atEi(ptr noundef nonnull align 8 dereferenceable(16) %7, i32 noundef %8)
  %10 = load ptr, ptr %9, align 8
  ret ptr %10
}

; Function Attrs: mustprogress nounwind uwtable
define linkonce_odr hidden noundef i32 @_ZNK9ValueType4sizeEv(ptr noundef nonnull align 8 dereferenceable(16) %0) #1 comdat align 2 {
  %2 = alloca ptr, align 8
  store ptr %0, ptr %2, align 8
  %3 = load ptr, ptr %2, align 8
  %4 = getelementptr inbounds %class.ValueType, ptr %3, i32 0, i32 1
  %5 = load i32, ptr %4, align 8
  ret i32 %5
}

; Function Attrs: mustprogress nounwind uwtable
define linkonce_odr hidden noundef i32 @_ZNK9ValueType3tagEv(ptr noundef nonnull align 8 dereferenceable(16) %0) #1 comdat align 2 {
  %2 = alloca ptr, align 8
  store ptr %0, ptr %2, align 8
  %3 = load ptr, ptr %2, align 8
  %4 = getelementptr inbounds %class.ValueType, ptr %3, i32 0, i32 2
  %5 = load i32, ptr %4, align 4
  ret i32 %5
}

; Function Attrs: mustprogress nounwind uwtable
define linkonce_odr hidden noundef ptr @_ZNK11Instruction4typeEv(ptr noundef nonnull align 8 dereferenceable(96) %0) #1 comdat align 2 {
  %2 = alloca ptr, align 8
  store ptr %0, ptr %2, align 8
  %3 = load ptr, ptr %2, align 8
  %4 = getelementptr inbounds %class.Instruction, ptr %3, i32 0, i32 4
  %5 = load ptr, ptr %4, align 8
  ret ptr %5
}

; Function Attrs: mustprogress nounwind uwtable
define linkonce_odr hidden noundef ptr @_ZNK10ValueStack8stack_atEi(ptr noundef nonnull align 8 dereferenceable(81) %0, i32 noundef %1) #1 comdat align 2 {
  %3 = alloca ptr, align 8
  %4 = alloca i32, align 4
  %5 = alloca ptr, align 8
  store ptr %0, ptr %3, align 8
  store i32 %1, ptr %4, align 4
  %6 = load ptr, ptr %3, align 8
  %7 = getelementptr inbounds %class.ValueStack, ptr %6, i32 0, i32 5
  %8 = load i32, ptr %4, align 4
  %9 = call noundef nonnull align 8 dereferenceable(8) ptr @_ZNK17GrowableArrayViewIP11InstructionE2atEi(ptr noundef nonnull align 8 dereferenceable(16) %7, i32 noundef %8)
  %10 = load ptr, ptr %9, align 8
  store ptr %10, ptr %5, align 8
  %11 = load ptr, ptr %5, align 8
  ret ptr %11
}

; Function Attrs: mustprogress nounwind uwtable
define linkonce_odr hidden noundef i32 @_ZNK10ValueStack10locks_sizeEv(ptr noundef nonnull align 8 dereferenceable(81) %0) #1 comdat align 2 {
  %2 = alloca ptr, align 8
  store ptr %0, ptr %2, align 8
  %3 = load ptr, ptr %2, align 8
  %4 = getelementptr inbounds %class.ValueStack, ptr %3, i32 0, i32 6
  %5 = load ptr, ptr %4, align 8
  %6 = icmp eq ptr %5, null
  br i1 %6, label %7, label %8

7:                                                ; preds = %1
  br label %12

8:                                                ; preds = %1
  %9 = getelementptr inbounds %class.ValueStack, ptr %3, i32 0, i32 6
  %10 = load ptr, ptr %9, align 8
  %11 = call noundef i32 @_ZNK17GrowableArrayBase6lengthEv(ptr noundef nonnull align 4 dereferenceable(8) %10)
  br label %12

12:                                               ; preds = %8, %7
  %13 = phi i32 [ 0, %7 ], [ %11, %8 ]
  ret i32 %13
}

; Function Attrs: mustprogress nounwind uwtable
define linkonce_odr hidden noundef i32 @_ZNK10ValueStack10stack_sizeEv(ptr noundef nonnull align 8 dereferenceable(81) %0) #1 comdat align 2 {
  %2 = alloca ptr, align 8
  store ptr %0, ptr %2, align 8
  %3 = load ptr, ptr %2, align 8
  %4 = getelementptr inbounds %class.ValueStack, ptr %3, i32 0, i32 5
  %5 = call noundef i32 @_ZNK17GrowableArrayBase6lengthEv(ptr noundef nonnull align 4 dereferenceable(8) %4)
  ret i32 %5
}

; Function Attrs: mustprogress nounwind uwtable
define linkonce_odr hidden noundef i32 @_ZNK10ValueStack11locals_sizeEv(ptr noundef nonnull align 8 dereferenceable(81) %0) #1 comdat align 2 {
  %2 = alloca ptr, align 8
  store ptr %0, ptr %2, align 8
  %3 = load ptr, ptr %2, align 8
  %4 = getelementptr inbounds %class.ValueStack, ptr %3, i32 0, i32 4
  %5 = call noundef i32 @_ZNK17GrowableArrayBase6lengthEv(ptr noundef nonnull align 4 dereferenceable(8) %4)
  ret i32 %5
}

; Function Attrs: mustprogress nounwind uwtable
define linkonce_odr hidden noundef ptr @_ZNK10ValueStack12caller_stateEv(ptr noundef nonnull align 8 dereferenceable(81) %0) #1 comdat align 2 {
  %2 = alloca ptr, align 8
  store ptr %0, ptr %2, align 8
  %3 = load ptr, ptr %2, align 8
  %4 = getelementptr inbounds %class.ValueStack, ptr %3, i32 0, i32 1
  %5 = load ptr, ptr %4, align 8
  ret ptr %5
}

; Function Attrs: mustprogress nounwind uwtable
define linkonce_odr hidden noundef ptr @_ZNK10ValueStack5scopeEv(ptr noundef nonnull align 8 dereferenceable(81) %0) #1 comdat align 2 {
  %2 = alloca ptr, align 8
  store ptr %0, ptr %2, align 8
  %3 = load ptr, ptr %2, align 8
  %4 = getelementptr inbounds %class.ValueStack, ptr %3, i32 0, i32 0
  %5 = load ptr, ptr %4, align 8
  ret ptr %5
}

; Function Attrs: mustprogress nounwind uwtable
define hidden noundef zeroext i1 @_ZN10ValueStack7is_sameEPS_(ptr noundef nonnull align 8 dereferenceable(81) %0, ptr noundef %1) #1 align 2 {
  %3 = alloca i1, align 1
  %4 = alloca ptr, align 8
  %5 = alloca ptr, align 8
  %6 = alloca i32, align 4
  %7 = alloca ptr, align 8
  %8 = alloca i32, align 4
  %9 = alloca i32, align 4
  store ptr %0, ptr %4, align 8
  store ptr %1, ptr %5, align 8
  %10 = load ptr, ptr %4, align 8
  %11 = call noundef ptr @_ZNK10ValueStack5scopeEv(ptr noundef nonnull align 8 dereferenceable(81) %10)
  %12 = load ptr, ptr %5, align 8
  %13 = call noundef ptr @_ZNK10ValueStack5scopeEv(ptr noundef nonnull align 8 dereferenceable(81) %12)
  %14 = icmp ne ptr %11, %13
  br i1 %14, label %15, label %16

15:                                               ; preds = %2
  store i1 false, ptr %3, align 1
  br label %101

16:                                               ; preds = %2
  %17 = call noundef ptr @_ZNK10ValueStack12caller_stateEv(ptr noundef nonnull align 8 dereferenceable(81) %10)
  %18 = load ptr, ptr %5, align 8
  %19 = call noundef ptr @_ZNK10ValueStack12caller_stateEv(ptr noundef nonnull align 8 dereferenceable(81) %18)
  %20 = icmp ne ptr %17, %19
  br i1 %20, label %21, label %22

21:                                               ; preds = %16
  store i1 false, ptr %3, align 1
  br label %101

22:                                               ; preds = %16
  %23 = call noundef i32 @_ZNK10ValueStack11locals_sizeEv(ptr noundef nonnull align 8 dereferenceable(81) %10)
  %24 = load ptr, ptr %5, align 8
  %25 = call noundef i32 @_ZNK10ValueStack11locals_sizeEv(ptr noundef nonnull align 8 dereferenceable(81) %24)
  %26 = icmp ne i32 %23, %25
  br i1 %26, label %27, label %28

27:                                               ; preds = %22
  store i1 false, ptr %3, align 1
  br label %101

28:                                               ; preds = %22
  %29 = call noundef i32 @_ZNK10ValueStack10stack_sizeEv(ptr noundef nonnull align 8 dereferenceable(81) %10)
  %30 = load ptr, ptr %5, align 8
  %31 = call noundef i32 @_ZNK10ValueStack10stack_sizeEv(ptr noundef nonnull align 8 dereferenceable(81) %30)
  %32 = icmp ne i32 %29, %31
  br i1 %32, label %33, label %34

33:                                               ; preds = %28
  store i1 false, ptr %3, align 1
  br label %101

34:                                               ; preds = %28
  %35 = call noundef i32 @_ZNK10ValueStack10locks_sizeEv(ptr noundef nonnull align 8 dereferenceable(81) %10)
  %36 = load ptr, ptr %5, align 8
  %37 = call noundef i32 @_ZNK10ValueStack10locks_sizeEv(ptr noundef nonnull align 8 dereferenceable(81) %36)
  %38 = icmp ne i32 %35, %37
  br i1 %38, label %39, label %40

39:                                               ; preds = %34
  store i1 false, ptr %3, align 1
  br label %101

40:                                               ; preds = %34
  %41 = call noundef i32 @_ZNK10ValueStack10stack_sizeEv(ptr noundef nonnull align 8 dereferenceable(81) %10)
  store i32 %41, ptr %8, align 4
  store i32 0, ptr %6, align 4
  br label %42

42:                                               ; preds = %75, %40
  %43 = load i32, ptr %6, align 4
  %44 = load i32, ptr %8, align 4
  %45 = icmp slt i32 %43, %44
  br i1 %45, label %46, label %49

46:                                               ; preds = %42
  %47 = load i32, ptr %6, align 4
  %48 = call noundef ptr @_ZNK10ValueStack8stack_atEi(ptr noundef nonnull align 8 dereferenceable(81) %10, i32 noundef %47)
  store ptr %48, ptr %7, align 8
  br label %49

49:                                               ; preds = %46, %42
  %50 = phi i1 [ false, %42 ], [ true, %46 ]
  br i1 %50, label %51, label %79

51:                                               ; preds = %49
  %52 = load ptr, ptr %7, align 8
  %53 = icmp ne ptr %52, null
  br i1 %53, label %54, label %66

54:                                               ; preds = %51
  %55 = load ptr, ptr %7, align 8
  %56 = call noundef ptr @_ZNK11Instruction4typeEv(ptr noundef nonnull align 8 dereferenceable(96) %55)
  %57 = call noundef i32 @_ZNK9ValueType3tagEv(ptr noundef nonnull align 8 dereferenceable(16) %56)
  %58 = load ptr, ptr %5, align 8
  %59 = load i32, ptr %6, align 4
  %60 = call noundef ptr @_ZNK10ValueStack8stack_atEi(ptr noundef nonnull align 8 dereferenceable(81) %58, i32 noundef %59)
  %61 = call noundef ptr @_ZNK11Instruction4typeEv(ptr noundef nonnull align 8 dereferenceable(96) %60)
  %62 = call noundef i32 @_ZNK9ValueType3tagEv(ptr noundef nonnull align 8 dereferenceable(16) %61)
  %63 = icmp ne i32 %57, %62
  br i1 %63, label %64, label %65

64:                                               ; preds = %54
  store i1 false, ptr %3, align 1
  br label %101

65:                                               ; preds = %54
  br label %66

66:                                               ; preds = %65, %51
  br label %67

67:                                               ; preds = %66
  %68 = load ptr, ptr %7, align 8
  %69 = icmp eq ptr %68, null
  br i1 %69, label %70, label %71

70:                                               ; preds = %67
  br label %75

71:                                               ; preds = %67
  %72 = load ptr, ptr %7, align 8
  %73 = call noundef ptr @_ZNK11Instruction4typeEv(ptr noundef nonnull align 8 dereferenceable(96) %72)
  %74 = call noundef i32 @_ZNK9ValueType4sizeEv(ptr noundef nonnull align 8 dereferenceable(16) %73)
  br label %75

75:                                               ; preds = %71, %70
  %76 = phi i32 [ 1, %70 ], [ %74, %71 ]
  %77 = load i32, ptr %6, align 4
  %78 = add nsw i32 %77, %76
  store i32 %78, ptr %6, align 4
  br label %42, !llvm.loop !10

79:                                               ; preds = %49
  store i32 0, ptr %9, align 4
  br label %80

80:                                               ; preds = %97, %79
  %81 = load i32, ptr %9, align 4
  %82 = call noundef i32 @_ZNK10ValueStack10locks_sizeEv(ptr noundef nonnull align 8 dereferenceable(81) %10)
  %83 = icmp slt i32 %81, %82
  br i1 %83, label %84, label %100

84:                                               ; preds = %80
  %85 = load i32, ptr %9, align 4
  %86 = call noundef ptr @_ZNK10ValueStack7lock_atEi(ptr noundef nonnull align 8 dereferenceable(81) %10, i32 noundef %85)
  store ptr %86, ptr %7, align 8
  %87 = load ptr, ptr %7, align 8
  %88 = icmp ne ptr %87, null
  br i1 %88, label %89, label %96

89:                                               ; preds = %84
  %90 = load ptr, ptr %7, align 8
  %91 = load ptr, ptr %5, align 8
  %92 = load i32, ptr %9, align 4
  %93 = call noundef ptr @_ZNK10ValueStack7lock_atEi(ptr noundef nonnull align 8 dereferenceable(81) %91, i32 noundef %92)
  %94 = icmp ne ptr %90, %93
  br i1 %94, label %95, label %96

95:                                               ; preds = %89
  store i1 false, ptr %3, align 1
  br label %101

96:                                               ; preds = %89, %84
  br label %97

97:                                               ; preds = %96
  %98 = load i32, ptr %9, align 4
  %99 = add nsw i32 %98, 1
  store i32 %99, ptr %9, align 4
  br label %80, !llvm.loop !11

100:                                              ; preds = %80
  store i1 true, ptr %3, align 1
  br label %101

101:                                              ; preds = %100, %95, %64, %39, %33, %27, %21, %15
  %102 = load i1, ptr %3, align 1
  ret i1 %102
}