; Function Attrs: mustprogress nofree norecurse nosync nounwind willreturn memory(read, inaccessiblemem: none) uwtable
define hidden noundef zeroext i1 @_ZN10ValueStack7is_sameEPS_(ptr nocapture noundef nonnull readonly align 8 dereferenceable(81) %0, ptr nocapture noundef readonly %1) local_unnamed_addr #2 align 2 {
  %3 = load ptr, ptr %0, align 8
  %4 = load ptr, ptr %1, align 8
  %.not = icmp eq ptr %3, %4
  br i1 %.not, label %5, label %.loopexit

5:                                                ; preds = %2
  %6 = getelementptr inbounds i8, ptr %0, i64 8
  %7 = load ptr, ptr %6, align 8
  %8 = getelementptr inbounds i8, ptr %1, i64 8
  %9 = load ptr, ptr %8, align 8
  %.not27 = icmp eq ptr %7, %9
  br i1 %.not27, label %10, label %.loopexit

10:                                               ; preds = %5
  %11 = getelementptr inbounds i8, ptr %0, i64 24
  %12 = load i32, ptr %11, align 8
  %13 = getelementptr inbounds i8, ptr %1, i64 24
  %14 = load i32, ptr %13, align 4
  %.not28 = icmp eq i32 %12, %14
  br i1 %.not28, label %15, label %.loopexit

15:                                               ; preds = %10
  %16 = getelementptr inbounds i8, ptr %0, i64 48
  %17 = load i32, ptr %16, align 8
  %18 = getelementptr inbounds i8, ptr %1, i64 48
  %19 = load i32, ptr %18, align 4
  %.not29 = icmp eq i32 %17, %19
  br i1 %.not29, label %20, label %.loopexit

20:                                               ; preds = %15
  %21 = getelementptr inbounds i8, ptr %0, i64 72
  %22 = load ptr, ptr %21, align 8
  %23 = icmp eq ptr %22, null
  br i1 %23, label %_ZNK10ValueStack10locks_sizeEv.exit, label %24

24:                                               ; preds = %20
  %25 = load i32, ptr %22, align 4
  br label %_ZNK10ValueStack10locks_sizeEv.exit

_ZNK10ValueStack10locks_sizeEv.exit:              ; preds = %20, %24
  %26 = phi i32 [ %25, %24 ], [ 0, %20 ]
  %27 = getelementptr inbounds i8, ptr %1, i64 72
  %28 = load ptr, ptr %27, align 8
  %29 = icmp eq ptr %28, null
  br i1 %29, label %_ZNK10ValueStack10locks_sizeEv.exit35, label %30

30:                                               ; preds = %_ZNK10ValueStack10locks_sizeEv.exit
  %31 = load i32, ptr %28, align 4
  br label %_ZNK10ValueStack10locks_sizeEv.exit35

_ZNK10ValueStack10locks_sizeEv.exit35:            ; preds = %_ZNK10ValueStack10locks_sizeEv.exit, %30
  %32 = phi i32 [ %31, %30 ], [ 0, %_ZNK10ValueStack10locks_sizeEv.exit ]
  %.not30 = icmp eq i32 %26, %32
  br i1 %.not30, label %.preheader, label %.loopexit

.preheader:                                       ; preds = %_ZNK10ValueStack10locks_sizeEv.exit35
  %33 = icmp sgt i32 %17, 0
  br i1 %33, label %.lr.ph, label %.critedge.preheader

.lr.ph:                                           ; preds = %.preheader
  %34 = getelementptr inbounds i8, ptr %0, i64 56
  %35 = load ptr, ptr %34, align 8
  %36 = getelementptr inbounds i8, ptr %1, i64 56
  br label %42

.critedge.preheader:                              ; preds = %61, %.preheader
  %37 = getelementptr inbounds i8, ptr %28, i64 8
  %38 = getelementptr inbounds i8, ptr %22, i64 8
  br i1 %23, label %.loopexit, label %.critedge.preheader.split

.critedge.preheader.split:                        ; preds = %.critedge.preheader
  %39 = load i32, ptr %22, align 4
  %40 = icmp sgt i32 %39, 0
  br i1 %40, label %.lr.ph40, label %.loopexit

.lr.ph40:                                         ; preds = %.critedge.preheader.split
  %41 = load ptr, ptr %38, align 8
  %wide.trip.count = zext nneg i32 %39 to i64
  br label %65

42:                                               ; preds = %.lr.ph, %61
  %.02438 = phi i32 [ 0, %.lr.ph ], [ %63, %61 ]
  %43 = sext i32 %.02438 to i64
  %44 = getelementptr inbounds ptr, ptr %35, i64 %43
  %45 = load ptr, ptr %44, align 8
  %cond = icmp eq ptr %45, null
  br i1 %cond, label %61, label %46

46:                                               ; preds = %42
  %47 = getelementptr inbounds i8, ptr %45, i64 24
  %48 = load ptr, ptr %47, align 8
  %49 = getelementptr inbounds i8, ptr %48, i64 12
  %50 = load i32, ptr %49, align 4
  %51 = load ptr, ptr %36, align 8
  %52 = getelementptr inbounds ptr, ptr %51, i64 %43
  %53 = load ptr, ptr %52, align 8
  %54 = getelementptr inbounds i8, ptr %53, i64 24
  %55 = load ptr, ptr %54, align 8
  %56 = getelementptr inbounds i8, ptr %55, i64 12
  %57 = load i32, ptr %56, align 4
  %.not34 = icmp eq i32 %50, %57
  br i1 %.not34, label %58, label %.loopexit

58:                                               ; preds = %46
  %59 = getelementptr inbounds i8, ptr %48, i64 8
  %60 = load i32, ptr %59, align 8
  br label %61

61:                                               ; preds = %42, %58
  %62 = phi i32 [ %60, %58 ], [ 1, %42 ]
  %63 = add nsw i32 %62, %.02438
  %64 = icmp slt i32 %63, %17
  br i1 %64, label %42, label %.critedge.preheader, !llvm.loop !11

65:                                               ; preds = %.lr.ph40, %.critedge
  %indvars.iv = phi i64 [ 0, %.lr.ph40 ], [ %indvars.iv.next, %.critedge ]
  %66 = getelementptr inbounds ptr, ptr %41, i64 %indvars.iv
  %67 = load ptr, ptr %66, align 8
  %.not31 = icmp eq ptr %67, null
  br i1 %.not31, label %.critedge, label %68

68:                                               ; preds = %65
  %69 = load ptr, ptr %37, align 8
  %70 = getelementptr inbounds ptr, ptr %69, i64 %indvars.iv
  %71 = load ptr, ptr %70, align 8
  %.not32 = icmp eq ptr %67, %71
  br i1 %.not32, label %.critedge, label %.loopexit

.critedge:                                        ; preds = %65, %68
  %indvars.iv.next = add nuw nsw i64 %indvars.iv, 1
  %exitcond.not = icmp eq i64 %indvars.iv.next, %wide.trip.count
  br i1 %exitcond.not, label %.loopexit, label %65, !llvm.loop !12

.loopexit:                                        ; preds = %46, %.critedge, %68, %.critedge.preheader, %.critedge.preheader.split, %_ZNK10ValueStack10locks_sizeEv.exit35, %15, %10, %5, %2
  %.023 = phi i1 [ false, %2 ], [ false, %5 ], [ false, %10 ], [ false, %15 ], [ false, %_ZNK10ValueStack10locks_sizeEv.exit35 ], [ true, %.critedge.preheader ], [ true, %.critedge.preheader.split ], [ false, %68 ], [ true, %.critedge ], [ false, %46 ]
  ret i1 %.023
}